; Function Attrs: nounwind uwtable
define noalias noundef ptr @Gia_ManFindEquivClasses(ptr noundef readonly captures(none) %0) local_unnamed_addr #0 {
  %2 = getelementptr i8, ptr %0, i64 4
  %.val29 = load i32, ptr %2, align 4
  %3 = tail call noalias dereferenceable_or_null(16) ptr @malloc(i64 noundef 16) #28
  %4 = add i32 %.val29, -1
  %or.cond.i = icmp ult i32 %4, 15
  %spec.store.select.i = select i1 %or.cond.i, i32 16, i32 %.val29
  %5 = getelementptr inbounds nuw i8, ptr %3, i64 4
  store i32 0, ptr %5, align 4
  store i32 %spec.store.select.i, ptr %3, align 8
  %.not.i = icmp eq i32 %spec.store.select.i, 0
  br i1 %.not.i, label %Vec_IntAlloc.exit, label %6

6:                                                ; preds = %1
  %7 = sext i32 %spec.store.select.i to i64
  %8 = shl nsw i64 %7, 2
  %9 = tail call noalias ptr @malloc(i64 noundef %8) #28
  br label %Vec_IntAlloc.exit

Vec_IntAlloc.exit:                                ; preds = %1, %6
  %10 = phi ptr [ %9, %6 ], [ null, %1 ]
  %11 = getelementptr inbounds nuw i8, ptr %3, i64 8
  store ptr %10, ptr %11, align 8
  %12 = tail call noalias dereferenceable_or_null(16) ptr @malloc(i64 noundef 16) #28
  %13 = getelementptr inbounds nuw i8, ptr %12, i64 4
  store i32 0, ptr %13, align 4
  store i32 %spec.store.select.i, ptr %12, align 8
  br i1 %.not.i, label %Vec_IntAlloc.exit35, label %14

14:                                               ; preds = %Vec_IntAlloc.exit
  %15 = sext i32 %spec.store.select.i to i64
  %16 = shl nsw i64 %15, 2
  %17 = tail call noalias ptr @malloc(i64 noundef %16) #28
  br label %Vec_IntAlloc.exit35

Vec_IntAlloc.exit35:                              ; preds = %Vec_IntAlloc.exit, %14
  %18 = phi ptr [ %17, %14 ], [ null, %Vec_IntAlloc.exit ]
  %19 = getelementptr inbounds nuw i8, ptr %12, i64 8
  store ptr %18, ptr %19, align 8
  %20 = icmp sgt i32 %.val29, 0
  br i1 %20, label %.lr.ph56, label %.critedge

.lr.ph56:                                         ; preds = %Vec_IntAlloc.exit35
  %21 = getelementptr i8, ptr %0, i64 8
  br label %22

22:                                               ; preds = %.lr.ph56, %108
  %indvars.iv67 = phi i64 [ 0, %.lr.ph56 ], [ %indvars.iv.next68, %108 ]
  %.val31 = load ptr, ptr %21, align 8
  %.val25 = load i32, ptr %13, align 4
  %23 = icmp sgt i32 %.val25, 0
  br i1 %23, label %.lr.ph, label %.critedge2

.lr.ph:                                           ; preds = %22
  %24 = getelementptr inbounds nuw %struct.Vec_Int_t_, ptr %.val31, i64 %indvars.iv67
  %.val26 = load ptr, ptr %19, align 8
  %25 = getelementptr inbounds nuw i8, ptr %24, i64 4
  %26 = load i32, ptr %25, align 4
  %.fr57 = freeze i32 %26
  %27 = icmp sgt i32 %.fr57, 0
  %28 = getelementptr inbounds nuw i8, ptr %24, i64 8
  %wide.trip.count.i = zext nneg i32 %.fr57 to i64
  br i1 %27, label %.lr.ph.split.us.preheader, label %.lr.ph.split

.lr.ph.split.us.preheader:                        ; preds = %.lr.ph
  %wide.trip.count65 = zext nneg i32 %.val25 to i64
  br label %.lr.ph.split.us

.lr.ph.split.us:                                  ; preds = %.lr.ph.split.us.preheader, %.loopexit.us
  %indvars.iv62 = phi i64 [ 0, %.lr.ph.split.us.preheader ], [ %indvars.iv.next63, %.loopexit.us ]
  %29 = getelementptr inbounds nuw i32, ptr %.val26, i64 %indvars.iv62
  %30 = load i32, ptr %29, align 4
  %31 = sext i32 %30 to i64
  %32 = getelementptr inbounds %struct.Vec_Int_t_, ptr %.val31, i64 %31
  %33 = getelementptr inbounds nuw i8, ptr %32, i64 4
  %34 = load i32, ptr %33, align 4
  %.not.i36.us = icmp eq i32 %.fr57, %34
  br i1 %.not.i36.us, label %.preheader.i.us, label %.loopexit.us

.preheader.i.us:                                  ; preds = %.lr.ph.split.us
  %35 = load ptr, ptr %28, align 8
  %36 = getelementptr inbounds nuw i8, ptr %32, i64 8
  %37 = load ptr, ptr %36, align 8
  br label %38

38:                                               ; preds = %43, %.preheader.i.us
  %indvars.iv.i.us = phi i64 [ 0, %.preheader.i.us ], [ %indvars.iv.next.i.us, %43 ]
  %39 = getelementptr inbounds nuw i32, ptr %35, i64 %indvars.iv.i.us
  %40 = load i32, ptr %39, align 4
  %41 = getelementptr inbounds nuw i32, ptr %37, i64 %indvars.iv.i.us
  %42 = load i32, ptr %41, align 4
  %.not10.i.us = icmp eq i32 %40, %42
  br i1 %.not10.i.us, label %43, label %.loopexit.us

.loopexit.us:                                     ; preds = %38, %.lr.ph.split.us
  %indvars.iv.next63 = add nuw nsw i64 %indvars.iv62, 1
  %exitcond66.not = icmp eq i64 %indvars.iv.next63, %wide.trip.count65
  br i1 %exitcond66.not, label %.critedge2, label %.lr.ph.split.us, !llvm.loop !60

43:                                               ; preds = %38
  %indvars.iv.next.i.us = add nuw nsw i64 %indvars.iv.i.us, 1
  %exitcond.not.i.us = icmp eq i64 %indvars.iv.next.i.us, %wide.trip.count.i
  br i1 %exitcond.not.i.us, label %.critedge2.loopexit, label %38, !llvm.loop !61

.lr.ph.split:                                     ; preds = %.lr.ph
  %invariant.gep = getelementptr i8, ptr %.val31, i64 4
  %wide.trip.count = zext nneg i32 %.val25 to i64
  br label %44

44:                                               ; preds = %.lr.ph.split, %49
  %indvars.iv = phi i64 [ 0, %.lr.ph.split ], [ %indvars.iv.next, %49 ]
  %45 = getelementptr inbounds nuw i32, ptr %.val26, i64 %indvars.iv
  %46 = load i32, ptr %45, align 4
  %47 = sext i32 %46 to i64
  %gep = getelementptr %struct.Vec_Int_t_, ptr %invariant.gep, i64 %47
  %48 = load i32, ptr %gep, align 4
  %.not.i36 = icmp eq i32 %.fr57, %48
  br i1 %.not.i36, label %.critedge2.loopexit71.split.loop.exit73, label %49

49:                                               ; preds = %44
  %indvars.iv.next = add nuw nsw i64 %indvars.iv, 1
  %exitcond.not = icmp eq i64 %indvars.iv.next, %wide.trip.count
  br i1 %exitcond.not, label %.critedge2, label %44, !llvm.loop !60

.critedge2.loopexit:                              ; preds = %43
  %50 = trunc nuw nsw i64 %indvars.iv62 to i32
  br label %.critedge2

.critedge2.loopexit71.split.loop.exit73:          ; preds = %44
  %51 = trunc nuw nsw i64 %indvars.iv to i32
  br label %.critedge2

.critedge2:                                       ; preds = %49, %.loopexit.us, %.critedge2.loopexit71.split.loop.exit73, %.critedge2.loopexit, %22
  %.02449 = phi i32 [ 0, %22 ], [ %50, %.critedge2.loopexit ], [ %51, %.critedge2.loopexit71.split.loop.exit73 ], [ %.val25, %.loopexit.us ], [ %.val25, %49 ]
  %52 = load i32, ptr %5, align 4
  %53 = load i32, ptr %3, align 8
  %54 = icmp eq i32 %52, %53
  br i1 %54, label %55, label %.Vec_IntGrow.exit10_crit_edge.i

.Vec_IntGrow.exit10_crit_edge.i:                  ; preds = %.critedge2
  %.pre.i = load ptr, ptr %11, align 8
  br label %Vec_IntPush.exit

55:                                               ; preds = %.critedge2
  %56 = icmp slt i32 %52, 16
  br i1 %56, label %57, label %64

57:                                               ; preds = %55
  %58 = load ptr, ptr %11, align 8
  %.not9.i.i = icmp eq ptr %58, null
  br i1 %.not9.i.i, label %61, label %59

59:                                               ; preds = %57
  %60 = tail call dereferenceable_or_null(64) ptr @realloc(ptr noundef nonnull %58, i64 noundef 64) #30
  br label %Vec_IntGrow.exit.i

61:                                               ; preds = %57
  %62 = tail call noalias dereferenceable_or_null(64) ptr @malloc(i64 noundef 64) #28
  br label %Vec_IntGrow.exit.i

Vec_IntGrow.exit.i:                               ; preds = %61, %59
  %63 = phi ptr [ %60, %59 ], [ %62, %61 ]
  store ptr %63, ptr %11, align 8
  store i32 16, ptr %3, align 8
  br label %Vec_IntPush.exit

64:                                               ; preds = %55
  %65 = shl nuw nsw i32 %52, 1
  %66 = load ptr, ptr %11, align 8
  %.not9.i9.i = icmp eq ptr %66, null
  %67 = zext nneg i32 %65 to i64
  %68 = shl nuw nsw i64 %67, 2
  br i1 %.not9.i9.i, label %71, label %69

69:                                               ; preds = %64
  %70 = tail call ptr @realloc(ptr noundef nonnull %66, i64 noundef %68) #30
  br label %73

71:                                               ; preds = %64
  %72 = tail call noalias ptr @malloc(i64 noundef %68) #28
  br label %73

73:                                               ; preds = %71, %69
  %74 = phi ptr [ %70, %69 ], [ %72, %71 ]
  store ptr %74, ptr %11, align 8
  store i32 %65, ptr %3, align 8
  br label %Vec_IntPush.exit

Vec_IntPush.exit:                                 ; preds = %.Vec_IntGrow.exit10_crit_edge.i, %Vec_IntGrow.exit.i, %73
  %75 = phi ptr [ %.pre.i, %.Vec_IntGrow.exit10_crit_edge.i ], [ %74, %73 ], [ %63, %Vec_IntGrow.exit.i ]
  %76 = add nsw i32 %52, 1
  store i32 %76, ptr %5, align 4
  %77 = sext i32 %52 to i64
  %78 = getelementptr inbounds i32, ptr %75, i64 %77
  store i32 %.02449, ptr %78, align 4
  %.val = load i32, ptr %13, align 4
  %79 = icmp eq i32 %.02449, %.val
  br i1 %79, label %80, label %108

80:                                               ; preds = %Vec_IntPush.exit
  %81 = load i32, ptr %12, align 8
  %82 = icmp eq i32 %.02449, %81
  br i1 %82, label %83, label %.Vec_IntGrow.exit10_crit_edge.i37

.Vec_IntGrow.exit10_crit_edge.i37:                ; preds = %80
  %.pre.i39 = load ptr, ptr %19, align 8
  br label %Vec_IntPush.exit43

83:                                               ; preds = %80
  %84 = icmp slt i32 %.02449, 16
  br i1 %84, label %85, label %92

85:                                               ; preds = %83
  %86 = load ptr, ptr %19, align 8
  %.not9.i.i41 = icmp eq ptr %86, null
  br i1 %.not9.i.i41, label %89, label %87

87:                                               ; preds = %85
  %88 = tail call dereferenceable_or_null(64) ptr @realloc(ptr noundef nonnull %86, i64 noundef 64) #30
  br label %Vec_IntGrow.exit.i42

89:                                               ; preds = %85
  %90 = tail call noalias dereferenceable_or_null(64) ptr @malloc(i64 noundef 64) #28
  br label %Vec_IntGrow.exit.i42

Vec_IntGrow.exit.i42:                             ; preds = %89, %87
  %91 = phi ptr [ %88, %87 ], [ %90, %89 ]
  store ptr %91, ptr %19, align 8
  store i32 16, ptr %12, align 8
  br label %Vec_IntPush.exit43

92:                                               ; preds = %83
  %93 = shl nuw nsw i32 %.02449, 1
  %94 = load ptr, ptr %19, align 8
  %.not9.i9.i40 = icmp eq ptr %94, null
  %95 = zext nneg i32 %93 to i64
  %96 = shl nuw nsw i64 %95, 2
  br i1 %.not9.i9.i40, label %99, label %97

97:                                               ; preds = %92
  %98 = tail call ptr @realloc(ptr noundef nonnull %94, i64 noundef %96) #30
  br label %101

99:                                               ; preds = %92
  %100 = tail call noalias ptr @malloc(i64 noundef %96) #28
  br label %101

101:                                              ; preds = %99, %97
  %102 = phi ptr [ %98, %97 ], [ %100, %99 ]
  store ptr %102, ptr %19, align 8
  store i32 %93, ptr %12, align 8
  br label %Vec_IntPush.exit43

Vec_IntPush.exit43:                               ; preds = %.Vec_IntGrow.exit10_crit_edge.i37, %Vec_IntGrow.exit.i42, %101
  %103 = phi ptr [ %.pre.i39, %.Vec_IntGrow.exit10_crit_edge.i37 ], [ %102, %101 ], [ %91, %Vec_IntGrow.exit.i42 ]
  %104 = add nsw i32 %.02449, 1
  store i32 %104, ptr %13, align 4
  %105 = sext i32 %.02449 to i64
  %106 = getelementptr inbounds i32, ptr %103, i64 %105
  %107 = trunc nuw nsw i64 %indvars.iv67 to i32
  store i32 %107, ptr %106, align 4
  br label %108

108:                                              ; preds = %Vec_IntPush.exit, %Vec_IntPush.exit43
  %indvars.iv.next68 = add nuw nsw i64 %indvars.iv67, 1
  %.val27 = load i32, ptr %2, align 4
  %109 = sext i32 %.val27 to i64
  %110 = icmp slt i64 %indvars.iv.next68, %109
  br i1 %110, label %22, label %.critedge.loopexit, !llvm.loop !62

.critedge.loopexit:                               ; preds = %108
  %.pre = load ptr, ptr %19, align 8
  br label %.critedge

.critedge:                                        ; preds = %.critedge.loopexit, %Vec_IntAlloc.exit35
  %111 = phi ptr [ %.pre, %.critedge.loopexit ], [ %18, %Vec_IntAlloc.exit35 ]
  %.not.i44 = icmp eq ptr %111, null
  br i1 %.not.i44, label %Vec_IntFree.exit, label %112

112:                                              ; preds = %.critedge
  tail call void @free(ptr noundef nonnull %111) #26
  br label %Vec_IntFree.exit

Vec_IntFree.exit:                                 ; preds = %.critedge, %112
  tail call void @free(ptr noundef nonnull %12) #26
  ret ptr %3
}